target datalayout = "e-m:e-p270:32:32-p271:32:32-p272:64:64-i64:64-i128:128-f80:128-n8:16:32:64-S128"
target triple = "x86_64-unknown-linux-gnu"

%class.doc_manager = type { %class.tbv_manager, ptr, %class.small_object_allocator }
%class.tbv_manager = type { %class.fixed_bit_vector_manager, %class.ptr_vector }
%class.fixed_bit_vector_manager = type <{ %class.small_object_allocator, i32, i32, i32, i32, %class.fixed_bit_vector, [4 x i8] }>
%class.fixed_bit_vector = type { [1 x i32] }
%class.ptr_vector = type { %class.vector }
%class.vector = type { ptr }
%class.small_object_allocator = type { [32 x ptr], [32 x ptr], i64 }
%class.doc = type { ptr, %class.union_bvec }
%class.union_bvec = type { %class.buffer }
%class.buffer = type { ptr, i32, i32, [8 x %"union.std::aligned_storage<8, 8>::type"] }
%"union.std::aligned_storage<8, 8>::type" = type { [8 x i8] }

; Function Attrs: mustprogress nounwind uwtable
define linkonce_odr hidden noundef nonnull align 8 dereferenceable(8) ptr @_ZNK6bufferIP3tbvLb0ELj8EEixEj(ptr noundef nonnull align 8 dereferenceable(80) %this, i32 noundef %idx) #5 comdat align 2 {
entry:
  %this.addr = alloca ptr, align 8
  %idx.addr = alloca i32, align 4
  store ptr %this, ptr %this.addr, align 8
  store i32 %idx, ptr %idx.addr, align 4
  %this1 = load ptr, ptr %this.addr, align 8
  %m_buffer = getelementptr inbounds %class.buffer, ptr %this1, i32 0, i32 0
  %0 = load ptr, ptr %m_buffer, align 8
  %1 = load i32, ptr %idx.addr, align 4
  %idxprom = zext i32 %1 to i64
  %arrayidx = getelementptr inbounds ptr, ptr %0, i64 %idxprom
  ret ptr %arrayidx
}

; Function Attrs: mustprogress nounwind uwtable
define linkonce_odr hidden noundef i32 @_ZNK6bufferIP3tbvLb0ELj8EE4sizeEv(ptr noundef nonnull align 8 dereferenceable(80) %this) #5 comdat align 2 {
entry:
  %this.addr = alloca ptr, align 8
  store ptr %this, ptr %this.addr, align 8
  %this1 = load ptr, ptr %this.addr, align 8
  %m_pos = getelementptr inbounds %class.buffer, ptr %this1, i32 0, i32 1
  %0 = load i32, ptr %m_pos, align 8
  ret i32 %0
}

; Function Attrs: mustprogress uwtable
define linkonce_odr hidden noundef nonnull align 4 dereferenceable(4) ptr @_ZNK10union_bvecI11tbv_manager3tbvEixEj(ptr noundef nonnull align 8 dereferenceable(80) %this, i32 noundef %idx) #4 comdat align 2 {
entry:
  %this.addr = alloca ptr, align 8
  %idx.addr = alloca i32, align 4
  store ptr %this, ptr %this.addr, align 8
  store i32 %idx, ptr %idx.addr, align 4
  %this1 = load ptr, ptr %this.addr, align 8
  %m_elems = getelementptr inbounds %class.union_bvec, ptr %this1, i32 0, i32 0
  %0 = load i32, ptr %idx.addr, align 4
  %call = call noundef nonnull align 8 dereferenceable(8) ptr @_ZNK6bufferIP3tbvLb0ELj8EEixEj(ptr noundef nonnull align 8 dereferenceable(80) %m_elems, i32 noundef %0)
  %1 = load ptr, ptr %call, align 8
  ret ptr %1
}

; Function Attrs: mustprogress uwtable
define linkonce_odr hidden noundef i32 @_ZNK10union_bvecI11tbv_manager3tbvE4sizeEv(ptr noundef nonnull align 8 dereferenceable(80) %this) #4 comdat align 2 {
entry:
  %this.addr = alloca ptr, align 8
  store ptr %this, ptr %this.addr, align 8
  %this1 = load ptr, ptr %this.addr, align 8
  %m_elems = getelementptr inbounds %class.union_bvec, ptr %this1, i32 0, i32 0
  %call = call noundef i32 @_ZNK6bufferIP3tbvLb0ELj8EE4sizeEv(ptr noundef nonnull align 8 dereferenceable(80) %m_elems)
  ret i32 %call
}

; Function Attrs: mustprogress nounwind uwtable
define linkonce_odr hidden noundef nonnull align 8 dereferenceable(80) ptr @_ZNK3doc3negEv(ptr noundef nonnull align 8 dereferenceable(88) %this) #5 comdat align 2 {
entry:
  %this.addr = alloca ptr, align 8
  store ptr %this, ptr %this.addr, align 8
  %this1 = load ptr, ptr %this.addr, align 8
  %m_neg = getelementptr inbounds %class.doc, ptr %this1, i32 0, i32 1
  ret ptr %m_neg
}

; Function Attrs: mustprogress nounwind uwtable
define linkonce_odr hidden noundef nonnull align 4 dereferenceable(4) ptr @_ZNK3doc3posEv(ptr noundef nonnull align 8 dereferenceable(88) %this) #5 comdat align 2 {
entry:
  %this.addr = alloca ptr, align 8
  store ptr %this, ptr %this.addr, align 8
  %this1 = load ptr, ptr %this.addr, align 8
  %m_pos = getelementptr inbounds %class.doc, ptr %this1, i32 0, i32 0
  %0 = load ptr, ptr %m_pos, align 8
  ret ptr %0
}

; Function Attrs: mustprogress uwtable
define hidden noundef zeroext i1 @_ZNK11doc_manager6equalsERK3docS2_(ptr noundef nonnull align 8 dereferenceable(1080) %this, ptr noundef nonnull align 8 dereferenceable(88) %a, ptr noundef nonnull align 8 dereferenceable(88) %b) #4 align 2 {
entry:
  %retval = alloca i1, align 1
  %this.addr = alloca ptr, align 8
  %a.addr = alloca ptr, align 8
  %b.addr = alloca ptr, align 8
  %i = alloca i32, align 4
  store ptr %this, ptr %this.addr, align 8
  store ptr %a, ptr %a.addr, align 8
  store ptr %b, ptr %b.addr, align 8
  %this1 = load ptr, ptr %this.addr, align 8
  %m = getelementptr inbounds %class.doc_manager, ptr %this1, i32 0, i32 0
  %0 = load ptr, ptr %a.addr, align 8
  %call = call noundef nonnull align 4 dereferenceable(4) ptr @_ZNK3doc3posEv(ptr noundef nonnull align 8 dereferenceable(88) %0)
  %1 = load ptr, ptr %b.addr, align 8
  %call2 = call noundef nonnull align 4 dereferenceable(4) ptr @_ZNK3doc3posEv(ptr noundef nonnull align 8 dereferenceable(88) %1)
  %call3 = call noundef zeroext i1 @_ZNK11tbv_manager6equalsERK3tbvS2_(ptr noundef nonnull align 8 dereferenceable(552) %m, ptr noundef nonnull align 4 dereferenceable(4) %call, ptr noundef nonnull align 4 dereferenceable(4) %call2)
  br i1 %call3, label %if.end, label %if.then

if.then:                                          ; preds = %entry
  store i1 false, ptr %retval, align 1
  br label %return

if.end:                                           ; preds = %entry
  %2 = load ptr, ptr %a.addr, align 8
  %call4 = call noundef nonnull align 8 dereferenceable(80) ptr @_ZNK3doc3negEv(ptr noundef nonnull align 8 dereferenceable(88) %2)
  %call5 = call noundef i32 @_ZNK10union_bvecI11tbv_manager3tbvE4sizeEv(ptr noundef nonnull align 8 dereferenceable(80) %call4)
  %3 = load ptr, ptr %b.addr, align 8
  %call6 = call noundef nonnull align 8 dereferenceable(80) ptr @_ZNK3doc3negEv(ptr noundef nonnull align 8 dereferenceable(88) %3)
  %call7 = call noundef i32 @_ZNK10union_bvecI11tbv_manager3tbvE4sizeEv(ptr noundef nonnull align 8 dereferenceable(80) %call6)
  %cmp = icmp ne i32 %call5, %call7
  br i1 %cmp, label %if.then8, label %if.end9

if.then8:                                         ; preds = %if.end
  store i1 false, ptr %retval, align 1
  br label %return

if.end9:                                          ; preds = %if.end
  store i32 0, ptr %i, align 4
  br label %for.cond

for.cond:                                         ; preds = %for.inc, %if.end9
  %4 = load i32, ptr %i, align 4
  %5 = load ptr, ptr %a.addr, align 8
  %call10 = call noundef nonnull align 8 dereferenceable(80) ptr @_ZNK3doc3negEv(ptr noundef nonnull align 8 dereferenceable(88) %5)
  %call11 = call noundef i32 @_ZNK10union_bvecI11tbv_manager3tbvE4sizeEv(ptr noundef nonnull align 8 dereferenceable(80) %call10)
  %cmp12 = icmp ult i32 %4, %call11
  br i1 %cmp12, label %for.body, label %for.end

for.body:                                         ; preds = %for.cond
  %m13 = getelementptr inbounds %class.doc_manager, ptr %this1, i32 0, i32 0
  %6 = load ptr, ptr %a.addr, align 8
  %call14 = call noundef nonnull align 8 dereferenceable(80) ptr @_ZNK3doc3negEv(ptr noundef nonnull align 8 dereferenceable(88) %6)
  %7 = load i32, ptr %i, align 4
  %call15 = call noundef nonnull align 4 dereferenceable(4) ptr @_ZNK10union_bvecI11tbv_manager3tbvEixEj(ptr noundef nonnull align 8 dereferenceable(80) %call14, i32 noundef %7)
  %8 = load ptr, ptr %b.addr, align 8
  %call16 = call noundef nonnull align 8 dereferenceable(80) ptr @_ZNK3doc3negEv(ptr noundef nonnull align 8 dereferenceable(88) %8)
  %9 = load i32, ptr %i, align 4
  %call17 = call noundef nonnull align 4 dereferenceable(4) ptr @_ZNK10union_bvecI11tbv_manager3tbvEixEj(ptr noundef nonnull align 8 dereferenceable(80) %call16, i32 noundef %9)
  %call18 = call noundef zeroext i1 @_ZNK11tbv_manager6equalsERK3tbvS2_(ptr noundef nonnull align 8 dereferenceable(552) %m13, ptr noundef nonnull align 4 dereferenceable(4) %call15, ptr noundef nonnull align 4 dereferenceable(4) %call17)
  br i1 %call18, label %if.end20, label %if.then19

if.then19:                                        ; preds = %for.body
  store i1 false, ptr %retval, align 1
  br label %return

if.end20:                                         ; preds = %for.body
  br label %for.inc

for.inc:                                          ; preds = %if.end20
  %10 = load i32, ptr %i, align 4
  %inc = add i32 %10, 1
  store i32 %inc, ptr %i, align 4
  br label %for.cond, !llvm.loop !42

for.end:                                          ; preds = %for.cond
  store i1 true, ptr %retval, align 1
  br label %return

return:                                           ; preds = %for.end, %if.then19, %if.then8, %if.then
  %11 = load i1, ptr %retval, align 1
  ret i1 %11
}