; Function Attrs: mustprogress uwtable
define hidden noundef zeroext i1 @_ZNK11doc_manager6equalsERK3docS2_(ptr noundef nonnull align 8 dereferenceable(1080) %this, ptr nocapture noundef nonnull readonly align 8 dereferenceable(88) %a, ptr nocapture noundef nonnull readonly align 8 dereferenceable(88) %b) local_unnamed_addr #3 align 2 {
entry:
  %0 = load ptr, ptr %a, align 8
  %1 = load ptr, ptr %b, align 8
  %call3 = tail call noundef zeroext i1 @_ZNK11tbv_manager6equalsERK3tbvS2_(ptr noundef nonnull align 8 dereferenceable(552) %this, ptr noundef nonnull align 4 dereferenceable(4) %0, ptr noundef nonnull align 4 dereferenceable(4) %1)
  br i1 %call3, label %if.end, label %return

if.end:                                           ; preds = %entry
  %m_neg.i = getelementptr inbounds i8, ptr %a, i64 8
  %m_pos.i.i = getelementptr inbounds i8, ptr %a, i64 16
  %2 = load i32, ptr %m_pos.i.i, align 8
  %m_neg.i9 = getelementptr inbounds i8, ptr %b, i64 8
  %m_pos.i.i10 = getelementptr inbounds i8, ptr %b, i64 16
  %3 = load i32, ptr %m_pos.i.i10, align 8
  %cmp.not = icmp eq i32 %2, %3
  br i1 %cmp.not, label %for.cond.preheader, label %return

for.cond.preheader:                               ; preds = %if.end
  %cmp1217.not = icmp eq i32 %2, 0
  br i1 %cmp1217.not, label %return, label %for.body

for.cond:                                         ; preds = %for.body
  %indvars.iv.next = add nuw nsw i64 %indvars.iv, 1
  %4 = load i32, ptr %m_pos.i.i, align 8
  %5 = zext i32 %4 to i64
  %cmp12 = icmp ult i64 %indvars.iv.next, %5
  br i1 %cmp12, label %for.body, label %return, !llvm.loop !47

for.body:                                         ; preds = %for.cond.preheader, %for.cond
  %indvars.iv = phi i64 [ %indvars.iv.next, %for.cond ], [ 0, %for.cond.preheader ]
  %6 = load ptr, ptr %m_neg.i, align 8
  %arrayidx.i.i = getelementptr inbounds ptr, ptr %6, i64 %indvars.iv
  %7 = load ptr, ptr %arrayidx.i.i, align 8
  %8 = load ptr, ptr %m_neg.i9, align 8
  %arrayidx.i.i16 = getelementptr inbounds ptr, ptr %8, i64 %indvars.iv
  %9 = load ptr, ptr %arrayidx.i.i16, align 8
  %call18 = tail call noundef zeroext i1 @_ZNK11tbv_manager6equalsERK3tbvS2_(ptr noundef nonnull align 8 dereferenceable(552) %this, ptr noundef nonnull align 4 dereferenceable(4) %7, ptr noundef nonnull align 4 dereferenceable(4) %9)
  br i1 %call18, label %for.cond, label %return

return:                                           ; preds = %for.body, %for.cond, %for.cond.preheader, %if.end, %entry
  %retval.0 = phi i1 [ false, %entry ], [ false, %if.end ], [ true, %for.cond.preheader ], [ %call18, %for.cond ], [ %call18, %for.body ]
  ret i1 %retval.0
}